target datalayout = "e-m:e-p270:32:32-p271:32:32-p272:64:64-i64:64-i128:128-f80:128-n8:16:32:64-S128"
target triple = "x86_64-unknown-linux-gnu"

%struct.mz_zip_archive = type { i64, i64, i32, i32, i32, i32, i64, ptr, ptr, ptr, ptr, ptr, ptr, ptr, ptr, ptr }
%struct.mz_zip_internal_state_tag = type { %struct.mz_zip_array, %struct.mz_zip_array, %struct.mz_zip_array, i32, i32, i32, ptr, i64, ptr, i64, i64 }
%struct.mz_zip_array = type { ptr, i64, i64, i32 }

; Function Attrs: nounwind uwtable
define hidden i32 @mz_zip_writer_end(ptr noundef %pZip) #0 {
entry:
  %pZip.addr.i31 = alloca ptr, align 8
  %pArray.addr.i32 = alloca ptr, align 8
  %pZip.addr.i27 = alloca ptr, align 8
  %pArray.addr.i28 = alloca ptr, align 8
  %pZip.addr.i = alloca ptr, align 8
  %pArray.addr.i = alloca ptr, align 8
  %retval = alloca i32, align 4
  %pZip.addr = alloca ptr, align 8
  %pState = alloca ptr, align 8
  %status = alloca i32, align 4
  store ptr %pZip, ptr %pZip.addr, align 8
  store i32 1, ptr %status, align 4
  %0 = load ptr, ptr %pZip.addr, align 8
  %tobool = icmp ne ptr %0, null
  br i1 %tobool, label %lor.lhs.false, label %if.then

lor.lhs.false:                                    ; preds = %entry
  %1 = load ptr, ptr %pZip.addr, align 8
  %m_pState = getelementptr inbounds %struct.mz_zip_archive, ptr %1, i32 0, i32 15
  %2 = load ptr, ptr %m_pState, align 8
  %tobool1 = icmp ne ptr %2, null
  br i1 %tobool1, label %lor.lhs.false2, label %if.then

lor.lhs.false2:                                   ; preds = %lor.lhs.false
  %3 = load ptr, ptr %pZip.addr, align 8
  %m_pAlloc = getelementptr inbounds %struct.mz_zip_archive, ptr %3, i32 0, i32 7
  %4 = load ptr, ptr %m_pAlloc, align 8
  %tobool3 = icmp ne ptr %4, null
  br i1 %tobool3, label %lor.lhs.false4, label %if.then

lor.lhs.false4:                                   ; preds = %lor.lhs.false2
  %5 = load ptr, ptr %pZip.addr, align 8
  %m_pFree = getelementptr inbounds %struct.mz_zip_archive, ptr %5, i32 0, i32 8
  %6 = load ptr, ptr %m_pFree, align 8
  %tobool5 = icmp ne ptr %6, null
  br i1 %tobool5, label %lor.lhs.false6, label %if.then

lor.lhs.false6:                                   ; preds = %lor.lhs.false4
  %7 = load ptr, ptr %pZip.addr, align 8
  %m_zip_mode = getelementptr inbounds %struct.mz_zip_archive, ptr %7, i32 0, i32 3
  %8 = load i32, ptr %m_zip_mode, align 4
  %cmp = icmp ne i32 %8, 2
  br i1 %cmp, label %land.lhs.true, label %if.end

land.lhs.true:                                    ; preds = %lor.lhs.false6
  %9 = load ptr, ptr %pZip.addr, align 8
  %m_zip_mode7 = getelementptr inbounds %struct.mz_zip_archive, ptr %9, i32 0, i32 3
  %10 = load i32, ptr %m_zip_mode7, align 4
  %cmp8 = icmp ne i32 %10, 3
  br i1 %cmp8, label %if.then, label %if.end

if.then:                                          ; preds = %land.lhs.true, %lor.lhs.false4, %lor.lhs.false2, %lor.lhs.false, %entry
  store i32 0, ptr %retval, align 4
  br label %return

if.end:                                           ; preds = %land.lhs.true, %lor.lhs.false6
  %11 = load ptr, ptr %pZip.addr, align 8
  %m_pState9 = getelementptr inbounds %struct.mz_zip_archive, ptr %11, i32 0, i32 15
  %12 = load ptr, ptr %m_pState9, align 8
  store ptr %12, ptr %pState, align 8
  %13 = load ptr, ptr %pZip.addr, align 8
  %m_pState10 = getelementptr inbounds %struct.mz_zip_archive, ptr %13, i32 0, i32 15
  store ptr null, ptr %m_pState10, align 8
  %14 = load ptr, ptr %pZip.addr, align 8
  %15 = load ptr, ptr %pState, align 8
  %m_central_dir = getelementptr inbounds %struct.mz_zip_internal_state_tag, ptr %15, i32 0, i32 0
  store ptr %14, ptr %pZip.addr.i31, align 8
  store ptr %m_central_dir, ptr %pArray.addr.i32, align 8
  %16 = load ptr, ptr %pZip.addr.i31, align 8
  %m_pFree.i33 = getelementptr inbounds %struct.mz_zip_archive, ptr %16, i32 0, i32 8
  %17 = load ptr, ptr %m_pFree.i33, align 8
  %18 = load ptr, ptr %pZip.addr.i31, align 8
  %m_pAlloc_opaque.i34 = getelementptr inbounds %struct.mz_zip_archive, ptr %18, i32 0, i32 10
  %19 = load ptr, ptr %m_pAlloc_opaque.i34, align 8
  %20 = load ptr, ptr %pArray.addr.i32, align 8
  %21 = load ptr, ptr %20, align 8
  call void %17(ptr noundef %19, ptr noundef %21) #10
  %22 = load ptr, ptr %pArray.addr.i32, align 8
  call void @llvm.memset.p0.i64(ptr align 8 %22, i8 0, i64 32, i1 false)
  %23 = load ptr, ptr %pZip.addr, align 8
  %24 = load ptr, ptr %pState, align 8
  %m_central_dir_offsets = getelementptr inbounds %struct.mz_zip_internal_state_tag, ptr %24, i32 0, i32 1
  store ptr %23, ptr %pZip.addr.i27, align 8
  store ptr %m_central_dir_offsets, ptr %pArray.addr.i28, align 8
  %25 = load ptr, ptr %pZip.addr.i27, align 8
  %m_pFree.i29 = getelementptr inbounds %struct.mz_zip_archive, ptr %25, i32 0, i32 8
  %26 = load ptr, ptr %m_pFree.i29, align 8
  %27 = load ptr, ptr %pZip.addr.i27, align 8
  %m_pAlloc_opaque.i30 = getelementptr inbounds %struct.mz_zip_archive, ptr %27, i32 0, i32 10
  %28 = load ptr, ptr %m_pAlloc_opaque.i30, align 8
  %29 = load ptr, ptr %pArray.addr.i28, align 8
  %30 = load ptr, ptr %29, align 8
  call void %26(ptr noundef %28, ptr noundef %30) #10
  %31 = load ptr, ptr %pArray.addr.i28, align 8
  call void @llvm.memset.p0.i64(ptr align 8 %31, i8 0, i64 32, i1 false)
  %32 = load ptr, ptr %pZip.addr, align 8
  %33 = load ptr, ptr %pState, align 8
  %m_sorted_central_dir_offsets = getelementptr inbounds %struct.mz_zip_internal_state_tag, ptr %33, i32 0, i32 2
  store ptr %32, ptr %pZip.addr.i, align 8
  store ptr %m_sorted_central_dir_offsets, ptr %pArray.addr.i, align 8
  %34 = load ptr, ptr %pZip.addr.i, align 8
  %m_pFree.i = getelementptr inbounds %struct.mz_zip_archive, ptr %34, i32 0, i32 8
  %35 = load ptr, ptr %m_pFree.i, align 8
  %36 = load ptr, ptr %pZip.addr.i, align 8
  %m_pAlloc_opaque.i = getelementptr inbounds %struct.mz_zip_archive, ptr %36, i32 0, i32 10
  %37 = load ptr, ptr %m_pAlloc_opaque.i, align 8
  %38 = load ptr, ptr %pArray.addr.i, align 8
  %39 = load ptr, ptr %38, align 8
  call void %35(ptr noundef %37, ptr noundef %39) #10
  %40 = load ptr, ptr %pArray.addr.i, align 8
  call void @llvm.memset.p0.i64(ptr align 8 %40, i8 0, i64 32, i1 false)
  %41 = load ptr, ptr %pState, align 8
  %m_pFile = getelementptr inbounds %struct.mz_zip_internal_state_tag, ptr %41, i32 0, i32 6
  %42 = load ptr, ptr %m_pFile, align 8
  %tobool11 = icmp ne ptr %42, null
  br i1 %tobool11, label %if.then12, label %if.end15

if.then12:                                        ; preds = %if.end
  %43 = load ptr, ptr %pState, align 8
  %m_pFile13 = getelementptr inbounds %struct.mz_zip_internal_state_tag, ptr %43, i32 0, i32 6
  %44 = load ptr, ptr %m_pFile13, align 8
  %call = call i32 @fclose(ptr noundef %44)
  %45 = load ptr, ptr %pState, align 8
  %m_pFile14 = getelementptr inbounds %struct.mz_zip_internal_state_tag, ptr %45, i32 0, i32 6
  store ptr null, ptr %m_pFile14, align 8
  br label %if.end15

if.end15:                                         ; preds = %if.then12, %if.end
  %46 = load ptr, ptr %pZip.addr, align 8
  %m_pWrite = getelementptr inbounds %struct.mz_zip_archive, ptr %46, i32 0, i32 12
  %47 = load ptr, ptr %m_pWrite, align 8
  %cmp16 = icmp eq ptr %47, @mz_zip_heap_write_func
  br i1 %cmp16, label %land.lhs.true17, label %if.end23

land.lhs.true17:                                  ; preds = %if.end15
  %48 = load ptr, ptr %pState, align 8
  %m_pMem = getelementptr inbounds %struct.mz_zip_internal_state_tag, ptr %48, i32 0, i32 8
  %49 = load ptr, ptr %m_pMem, align 8
  %tobool18 = icmp ne ptr %49, null
  br i1 %tobool18, label %if.then19, label %if.end23

if.then19:                                        ; preds = %land.lhs.true17
  %50 = load ptr, ptr %pZip.addr, align 8
  %m_pFree20 = getelementptr inbounds %struct.mz_zip_archive, ptr %50, i32 0, i32 8
  %51 = load ptr, ptr %m_pFree20, align 8
  %52 = load ptr, ptr %pZip.addr, align 8
  %m_pAlloc_opaque = getelementptr inbounds %struct.mz_zip_archive, ptr %52, i32 0, i32 10
  %53 = load ptr, ptr %m_pAlloc_opaque, align 8
  %54 = load ptr, ptr %pState, align 8
  %m_pMem21 = getelementptr inbounds %struct.mz_zip_internal_state_tag, ptr %54, i32 0, i32 8
  %55 = load ptr, ptr %m_pMem21, align 8
  call void %51(ptr noundef %53, ptr noundef %55)
  %56 = load ptr, ptr %pState, align 8
  %m_pMem22 = getelementptr inbounds %struct.mz_zip_internal_state_tag, ptr %56, i32 0, i32 8
  store ptr null, ptr %m_pMem22, align 8
  br label %if.end23

if.end23:                                         ; preds = %if.then19, %land.lhs.true17, %if.end15
  %57 = load ptr, ptr %pZip.addr, align 8
  %m_pFree24 = getelementptr inbounds %struct.mz_zip_archive, ptr %57, i32 0, i32 8
  %58 = load ptr, ptr %m_pFree24, align 8
  %59 = load ptr, ptr %pZip.addr, align 8
  %m_pAlloc_opaque25 = getelementptr inbounds %struct.mz_zip_archive, ptr %59, i32 0, i32 10
  %60 = load ptr, ptr %m_pAlloc_opaque25, align 8
  %61 = load ptr, ptr %pState, align 8
  call void %58(ptr noundef %60, ptr noundef %61)
  %62 = load ptr, ptr %pZip.addr, align 8
  %m_zip_mode26 = getelementptr inbounds %struct.mz_zip_archive, ptr %62, i32 0, i32 3
  store i32 0, ptr %m_zip_mode26, align 4
  %63 = load i32, ptr %status, align 4
  store i32 %63, ptr %retval, align 4
  br label %return

return:                                           ; preds = %if.end23, %if.then
  %64 = load i32, ptr %retval, align 4
  ret i32 %64
}