; Function Attrs: nounwind uwtable
define hidden range(i32 0, 2) i32 @mz_zip_writer_end(ptr noundef %pZip) local_unnamed_addr #4 {
entry:
  %tobool.not = icmp eq ptr %pZip, null
  br i1 %tobool.not, label %return, label %lor.lhs.false

lor.lhs.false:                                    ; preds = %entry
  %m_pState = getelementptr inbounds nuw i8, ptr %pZip, i64 104
  %0 = load ptr, ptr %m_pState, align 8
  %tobool1.not = icmp eq ptr %0, null
  br i1 %tobool1.not, label %return, label %lor.lhs.false2

lor.lhs.false2:                                   ; preds = %lor.lhs.false
  %m_pAlloc = getelementptr inbounds nuw i8, ptr %pZip, i64 40
  %1 = load ptr, ptr %m_pAlloc, align 8
  %tobool3.not = icmp eq ptr %1, null
  br i1 %tobool3.not, label %return, label %lor.lhs.false4

lor.lhs.false4:                                   ; preds = %lor.lhs.false2
  %m_pFree = getelementptr inbounds nuw i8, ptr %pZip, i64 48
  %2 = load ptr, ptr %m_pFree, align 8
  %tobool5.not = icmp eq ptr %2, null
  br i1 %tobool5.not, label %return, label %lor.lhs.false6

lor.lhs.false6:                                   ; preds = %lor.lhs.false4
  %m_zip_mode = getelementptr inbounds nuw i8, ptr %pZip, i64 20
  %3 = load i32, ptr %m_zip_mode, align 4
  %4 = and i32 %3, -2
  %switch = icmp eq i32 %4, 2
  br i1 %switch, label %if.end, label %return

if.end:                                           ; preds = %lor.lhs.false6
  store ptr null, ptr %m_pState, align 8
  %m_pAlloc_opaque.i34 = getelementptr inbounds nuw i8, ptr %pZip, i64 64
  %5 = load ptr, ptr %m_pAlloc_opaque.i34, align 8
  %6 = load ptr, ptr %0, align 8
  tail call void %2(ptr noundef %5, ptr noundef %6) #30
  tail call void @llvm.memset.p0.i64(ptr noundef nonnull align 8 dereferenceable(32) %0, i8 0, i64 32, i1 false)
  %m_central_dir_offsets = getelementptr inbounds nuw i8, ptr %0, i64 32
  %7 = load ptr, ptr %m_pFree, align 8
  %8 = load ptr, ptr %m_pAlloc_opaque.i34, align 8
  %9 = load ptr, ptr %m_central_dir_offsets, align 8
  tail call void %7(ptr noundef %8, ptr noundef %9) #30
  tail call void @llvm.memset.p0.i64(ptr noundef nonnull align 8 dereferenceable(32) %m_central_dir_offsets, i8 0, i64 32, i1 false)
  %m_sorted_central_dir_offsets = getelementptr inbounds nuw i8, ptr %0, i64 64
  %10 = load ptr, ptr %m_pFree, align 8
  %11 = load ptr, ptr %m_pAlloc_opaque.i34, align 8
  %12 = load ptr, ptr %m_sorted_central_dir_offsets, align 8
  tail call void %10(ptr noundef %11, ptr noundef %12) #30
  tail call void @llvm.memset.p0.i64(ptr noundef nonnull align 8 dereferenceable(32) %m_sorted_central_dir_offsets, i8 0, i64 32, i1 false)
  %m_pFile = getelementptr inbounds nuw i8, ptr %0, i64 112
  %13 = load ptr, ptr %m_pFile, align 8
  %tobool11.not = icmp eq ptr %13, null
  br i1 %tobool11.not, label %if.end15, label %if.then12

if.then12:                                        ; preds = %if.end
  %call = tail call i32 @fclose(ptr noundef nonnull %13)
  store ptr null, ptr %m_pFile, align 8
  br label %if.end15

if.end15:                                         ; preds = %if.then12, %if.end
  %m_pWrite = getelementptr inbounds nuw i8, ptr %pZip, i64 80
  %14 = load ptr, ptr %m_pWrite, align 8
  %cmp16 = icmp eq ptr %14, @mz_zip_heap_write_func
  br i1 %cmp16, label %land.lhs.true17, label %if.end23

land.lhs.true17:                                  ; preds = %if.end15
  %m_pMem = getelementptr inbounds nuw i8, ptr %0, i64 128
  %15 = load ptr, ptr %m_pMem, align 8
  %tobool18.not = icmp eq ptr %15, null
  br i1 %tobool18.not, label %if.end23, label %if.then19

if.then19:                                        ; preds = %land.lhs.true17
  %16 = load ptr, ptr %m_pFree, align 8
  %17 = load ptr, ptr %m_pAlloc_opaque.i34, align 8
  tail call void %16(ptr noundef %17, ptr noundef nonnull %15) #30
  store ptr null, ptr %m_pMem, align 8
  br label %if.end23

if.end23:                                         ; preds = %if.then19, %land.lhs.true17, %if.end15
  %18 = load ptr, ptr %m_pFree, align 8
  %19 = load ptr, ptr %m_pAlloc_opaque.i34, align 8
  tail call void %18(ptr noundef %19, ptr noundef nonnull %0) #30
  store i32 0, ptr %m_zip_mode, align 4
  br label %return

return:                                           ; preds = %lor.lhs.false6, %entry, %lor.lhs.false, %lor.lhs.false2, %lor.lhs.false4, %if.end23
  %retval.0 = phi i32 [ 1, %if.end23 ], [ 0, %lor.lhs.false6 ], [ 0, %lor.lhs.false4 ], [ 0, %lor.lhs.false2 ], [ 0, %lor.lhs.false ], [ 0, %entry ]
  ret i32 %retval.0
}